(i__main__
HuffmanNode
p0
(dp1
S'symbol'
p2
NsS'right'
p3
(i__main__
HuffmanNode
p4
(dp5
g2
Nsg3
(i__main__
HuffmanNode
p6
(dp7
g2
Nsg3
(i__main__
HuffmanNode
p8
(dp9
g2
Nsg3
(i__main__
HuffmanNode
p10
(dp11
g2
Nsg3
(i__main__
HuffmanNode
p12
(dp13
g2
S'k'
p14
sg3
NsS'parent'
p15
NsS'weight'
p16
I22938
sS'left'
p17
Nsbsg15
Nsg16
I45141
sg17
(i__main__
HuffmanNode
p18
(dp19
g2
S'\xc3'
p20
sg3
Nsg15
Nsg16
I22203
sg17
Nsbsbsg15
Nsg16
I89181
sg17
(i__main__
HuffmanNode
p21
(dp22
g2
S't'
p23
sg3
Nsg15
Nsg16
I44040
sg17
Nsbsbsg15
Nsg16
I174391
sg17
(i__main__
HuffmanNode
p24
(dp25
g2
Nsg3
(i__main__
HuffmanNode
p26
(dp27
g2
Nsg3
(i__main__
HuffmanNode
p28
(dp29
g2
S'o'
p30
sg3
Nsg15
Nsg16
I21987
sg17
Nsbsg15
Nsg16
I43888
sg17
(i__main__
HuffmanNode
p31
(dp32
g2
Nsg3
(i__main__
HuffmanNode
p33
(dp34
g2
S'v'
p35
sg3
Nsg15
Nsg16
I11199
sg17
Nsbsg15
Nsg16
I21901
sg17
(i__main__
HuffmanNode
p36
(dp37
g2
Nsg3
(i__main__
HuffmanNode
p38
(dp39
g2
Nsg3
(i__main__
HuffmanNode
p40
(dp41
g2
Nsg3
(i__main__
HuffmanNode
p42
(dp43
g2
S'6'
p44
sg3
Nsg15
Nsg16
I1466
sg17
Nsbsg15
Nsg16
I2813
sg17
(i__main__
HuffmanNode
p45
(dp46
g2
Nsg3
(i__main__
HuffmanNode
p47
(dp48
g2
Nsg3
(i__main__
HuffmanNode
p49
(dp50
g2
Nsg3
(i__main__
HuffmanNode
p51
(dp52
g2
Nsg3
(i__main__
HuffmanNode
p53
(dp54
g2
S'\x80'
p55
sg3
Nsg15
Nsg16
I100
sg17
Nsbsg15
Nsg16
I196
sg17
(i__main__
HuffmanNode
p56
(dp57
g2
S'A'
p58
sg3
Nsg15
Nsg16
I96
sg17
Nsbsbsg15
Nsg16
I349
sg17
(i__main__
HuffmanNode
p59
(dp60
g2
S'R'
p61
sg3
Nsg15
Nsg16
I153
sg17
Nsbsbsg15
Nsg16
I688
sg17
(i__main__
HuffmanNode
p62
(dp63
g2
S'-'
p64
sg3
Nsg15
Nsg16
I339
sg17
Nsbsbsg15
Nsg16
I1347
sg17
(i__main__
HuffmanNode
p65
(dp66
g2
S'V'
p67
sg3
Nsg15
Nsg16
I659
sg17
Nsbsbsbsg15
Nsg16
I5467
sg17
(i__main__
HuffmanNode
p68
(dp69
g2
Nsg3
(i__main__
HuffmanNode
p70
(dp71
g2
S'7'
p72
sg3
Nsg15
Nsg16
I1336
sg17
Nsbsg15
Nsg16
I2654
sg17
(i__main__
HuffmanNode
p73
(dp74
g2
S'8'
p75
sg3
Nsg15
Nsg16
I1318
sg17
Nsbsbsbsg15
Nsg16
I10702
sg17
(i__main__
HuffmanNode
p76
(dp77
g2
Nsg3
(i__main__
HuffmanNode
p78
(dp79
g2
S'9'
p80
sg3
Nsg15
Nsg16
I2637
sg17
Nsbsg15
Nsg16
I5235
sg17
(i__main__
HuffmanNode
p81
(dp82
g2
Nsg3
(i__main__
HuffmanNode
p83
(dp84
g2
S'\xc2'
p85
sg3
Nsg15
Nsg16
I1299
sg17
Nsbsg15
Nsg16
I2598
sg17
(i__main__
HuffmanNode
p86
(dp87
g2
S'\xa7'
p88
sg3
Nsg15
Nsg16
I1299
sg17
Nsbsbsbsbsbsbsg15
Nsg16
I85210
sg17
(i__main__
HuffmanNode
p89
(dp90
g2
Nsg3
(i__main__
HuffmanNode
p91
(dp92
g2
S'u'
p93
sg3
Nsg15
Nsg16
I21603
sg17
Nsbsg15
Nsg16
I41322
sg17
(i__main__
HuffmanNode
p94
(dp95
g2
Nsg3
(i__main__
HuffmanNode
p96
(dp97
g2
Nsg3
(i__main__
HuffmanNode
p98
(dp99
g2
S'j'
p100
sg3
Nsg15
Nsg16
I4971
sg17
Nsbsg15
Nsg16
I9937
sg17
(i__main__
HuffmanNode
p101
(dp102
g2
Nsg3
(i__main__
HuffmanNode
p103
(dp104
g2
S'\xb6'
p105
sg3
Nsg15
Nsg16
I2522
sg17
Nsbsg15
Nsg16
I4966
sg17
(i__main__
HuffmanNode
p106
(dp107
g2
Nsg3
(i__main__
HuffmanNode
p108
(dp109
g2
Nsg3
(i__main__
HuffmanNode
p110
(dp111
g2
S'T'
p112
sg3
Nsg15
Nsg16
I631
sg17
Nsbsg15
Nsg16
I1255
sg17
(i__main__
HuffmanNode
p113
(dp114
g2
Nsg3
(i__main__
HuffmanNode
p115
(dp116
g2
S'H'
p117
sg3
Nsg15
Nsg16
I316
sg17
Nsbsg15
Nsg16
I624
sg17
(i__main__
HuffmanNode
p118
(dp119
g2
S'Y'
p120
sg3
Nsg15
Nsg16
I308
sg17
Nsbsbsbsg15
Nsg16
I2444
sg17
(i__main__
HuffmanNode
p121
(dp122
g2
S'g'
p123
sg3
Nsg15
Nsg16
I1189
sg17
Nsbsbsbsbsg15
Nsg16
I19719
sg17
(i__main__
HuffmanNode
p124
(dp125
g2
S'\r'
p126
sg3
Nsg15
Nsg16
I9782
sg17
Nsbsbsbsbsbsg15
Nsg16
I321588
sg17
(i__main__
HuffmanNode
p127
(dp128
g2
Nsg3
(i__main__
HuffmanNode
p129
(dp130
g2
Nsg3
(i__main__
HuffmanNode
p131
(dp132
g2
Nsg3
(i__main__
HuffmanNode
p133
(dp134
g2
S'\xa4'
p135
sg3
Nsg15
Nsg16
I19680
sg17
Nsbsg15
Nsg16
I39003
sg17
(i__main__
HuffmanNode
p136
(dp137
g2
Nsg3
(i__main__
HuffmanNode
p138
(dp139
g2
S'\n'
p140
sg3
Nsg15
Nsg16
I9782
sg17
Nsbsg15
Nsg16
I19323
sg17
(i__main__
HuffmanNode
p141
(dp142
g2
S'r'
p143
sg3
Nsg15
Nsg16
I9541
sg17
Nsbsbsbsg15
Nsg16
I76372
sg17
(i__main__
HuffmanNode
p144
(dp145
g2
S'i'
p146
sg3
Nsg15
Nsg16
I37369
sg17
Nsbsbsg15
Nsg16
I147197
sg17
(i__main__
HuffmanNode
p147
(dp148
g2
Nsg3
(i__main__
HuffmanNode
p149
(dp150
g2
Nsg3
(i__main__
HuffmanNode
p151
(dp152
g2
S'l'
p153
sg3
Nsg15
Nsg16
I18971
sg17
Nsbsg15
Nsg16
I36933
sg17
(i__main__
HuffmanNode
p154
(dp155
g2
Nsg3
(i__main__
HuffmanNode
p156
(dp157
g2
Nsg3
(i__main__
HuffmanNode
p158
(dp159
g2
S'.'
p160
sg3
Nsg15
Nsg16
I4782
sg17
Nsbsg15
Nsg16
I9465
sg17
(i__main__
HuffmanNode
p161
(dp162
g2
Nsg3
(i__main__
HuffmanNode
p163
(dp164
g2
S'/'
p165
sg3
Nsg15
Nsg16
I2405
sg17
Nsbsg15
Nsg16
I4683
sg17
(i__main__
HuffmanNode
p166
(dp167
g2
Nsg3
(i__main__
HuffmanNode
p168
(dp169
g2
S'('
p170
sg3
Nsg15
Nsg16
I1187
sg17
Nsbsg15
Nsg16
I2278
sg17
(i__main__
HuffmanNode
p171
(dp172
g2
Nsg3
(i__main__
HuffmanNode
p173
(dp174
g2
S'J'
p175
sg3
Nsg15
Nsg16
I567
sg17
Nsbsg15
Nsg16
I1091
sg17
(i__main__
HuffmanNode
p176
(dp177
g2
Nsg3
(i__main__
HuffmanNode
p178
(dp179
g2
Nsg3
(i__main__
HuffmanNode
p180
(dp181
g2
S';'
p182
sg3
Nsg15
Nsg16
I152
sg17
Nsbsg15
Nsg16
I289
sg17
(i__main__
HuffmanNode
p183
(dp184
g2
Nsg3
(i__main__
HuffmanNode
p185
(dp186
g2
S'P'
p187
sg3
Nsg15
Nsg16
I69
sg17
Nsbsg15
Nsg16
I137
sg17
(i__main__
HuffmanNode
p188
(dp189
g2
S'\x93'
p190
sg3
Nsg15
Nsg16
I68
sg17
Nsbsbsbsg15
Nsg16
I524
sg17
(i__main__
HuffmanNode
p191
(dp192
g2
Nsg3
(i__main__
HuffmanNode
p193
(dp194
g2
S'K'
p195
sg3
Nsg15
Nsg16
I121
sg17
Nsbsg15
Nsg16
I235
sg17
(i__main__
HuffmanNode
p196
(dp197
g2
Nsg3
(i__main__
HuffmanNode
p198
(dp199
g2
Nsg3
(i__main__
HuffmanNode
p200
(dp201
g2
S'I'
p202
sg3
Nsg15
Nsg16
I29
sg17
Nsbsg15
Nsg16
I57
sg17
(i__main__
HuffmanNode
p203
(dp204
g2
Nsg3
(i__main__
HuffmanNode
p205
(dp206
g2
Nsg3
(i__main__
HuffmanNode
p207
(dp208
g2
S'f'
p209
sg3
Nsg15
Nsg16
I8
sg17
Nsbsg15
Nsg16
I16
sg17
(i__main__
HuffmanNode
p210
(dp211
g2
S'\x99'
p212
sg3
Nsg15
Nsg16
I8
sg17
Nsbsbsg15
Nsg16
I28
sg17
(i__main__
HuffmanNode
p213
(dp214
g2
Nsg3
(i__main__
HuffmanNode
p215
(dp216
g2
Nsg3
(i__main__
HuffmanNode
p217
(dp218
g2
S'D'
p219
sg3
Nsg15
Nsg16
I3
sg17
Nsbsg15
Nsg16
I6
sg17
(i__main__
HuffmanNode
p220
(dp221
g2
S'B'
p222
sg3
Nsg15
Nsg16
I3
sg17
Nsbsbsg15
Nsg16
I12
sg17
(i__main__
HuffmanNode
p223
(dp224
g2
S'G'
p225
sg3
Nsg15
Nsg16
I6
sg17
Nsbsbsbsbsg15
Nsg16
I114
sg17
(i__main__
HuffmanNode
p226
(dp227
g2
S'O'
p228
sg3
Nsg15
Nsg16
I57
sg17
Nsbsbsbsbsbsbsbsbsg15
Nsg16
I17962
sg17
(i__main__
HuffmanNode
p229
(dp230
g2
Nsg3
(i__main__
HuffmanNode
p231
(dp232
g2
S','
p233
sg3
Nsg15
Nsg16
I4261
sg17
Nsbsg15
Nsg16
I8497
sg17
(i__main__
HuffmanNode
p234
(dp235
g2
S'2'
p236
sg3
Nsg15
Nsg16
I4236
sg17
Nsbsbsbsbsg15
Nsg16
I70825
sg17
(i__main__
HuffmanNode
p237
(dp238
g2
S'e'
p239
sg3
Nsg15
Nsg16
I33892
sg17
Nsbsbsbsbsg15
Nsg16
I543259
sg17
(i__main__
HuffmanNode
p240
(dp241
g2
Nsg3
(i__main__
HuffmanNode
p242
(dp243
g2
Nsg3
(i__main__
HuffmanNode
p244
(dp245
g2
Nsg3
(i__main__
HuffmanNode
p246
(dp247
g2
S'n'
p248
sg3
Nsg15
Nsg16
I33122
sg17
Nsbsg15
Nsg16
I65807
sg17
(i__main__
HuffmanNode
p249
(dp250
g2
S's'
p251
sg3
Nsg15
Nsg16
I32685
sg17
Nsbsbsg15
Nsg16
I119306
sg17
(i__main__
HuffmanNode
p252
(dp253
g2
Nsg3
(i__main__
HuffmanNode
p254
(dp255
g2
Nsg3
(i__main__
HuffmanNode
p256
(dp257
g2
Nsg3
(i__main__
HuffmanNode
p258
(dp259
g2
Nsg3
(i__main__
HuffmanNode
p260
(dp261
g2
S'd'
p262
sg3
Nsg15
Nsg16
I4112
sg17
Nsbsg15
Nsg16
I8218
sg17
(i__main__
HuffmanNode
p263
(dp264
g2
S'0'
p265
sg3
Nsg15
Nsg16
I4106
sg17
Nsbsbsg15
Nsg16
I16029
sg17
(i__main__
HuffmanNode
p266
(dp267
g2
Nsg3
(i__main__
HuffmanNode
p268
(dp269
g2
Nsg3
(i__main__
HuffmanNode
p270
(dp271
g2
S')'
p272
sg3
Nsg15
Nsg16
I2115
sg17
Nsbsg15
Nsg16
I4071
sg17
(i__main__
HuffmanNode
p273
(dp274
g2
Nsg3
(i__main__
HuffmanNode
p275
(dp276
g2
S':'
p277
sg3
Nsg15
Nsg16
I1084
sg17
Nsbsg15
Nsg16
I1956
sg17
(i__main__
HuffmanNode
p278
(dp279
g2
Nsg3
(i__main__
HuffmanNode
p280
(dp281
g2
S'L'
p282
sg3
Nsg15
Nsg16
I447
sg17
Nsbsg15
Nsg16
I872
sg17
(i__main__
HuffmanNode
p283
(dp284
g2
S'S'
p285
sg3
Nsg15
Nsg16
I425
sg17
Nsbsbsbsbsg15
Nsg16
I7811
sg17
(i__main__
HuffmanNode
p286
(dp287
g2
S'p'
p288
sg3
Nsg15
Nsg16
I3740
sg17
Nsbsbsbsg15
Nsg16
I29121
sg17
(i__main__
HuffmanNode
p289
(dp290
g2
Nsg3
(i__main__
HuffmanNode
p291
(dp292
g2
Nsg3
(i__main__
HuffmanNode
p293
(dp294
g2
Nsg3
(i__main__
HuffmanNode
p295
(dp296
g2
S'3'
p297
sg3
Nsg15
Nsg16
I1815
sg17
Nsbsg15
Nsg16
I3496
sg17
(i__main__
HuffmanNode
p298
(dp299
g2
S'4'
p300
sg3
Nsg15
Nsg16
I1681
sg17
Nsbsbsg15
Nsg16
I6724
sg17
(i__main__
HuffmanNode
p301
(dp302
g2
Nsg3
(i__main__
HuffmanNode
p303
(dp304
g2
S'5'
p305
sg3
Nsg15
Nsg16
I1650
sg17
Nsbsg15
Nsg16
I3228
sg17
(i__main__
HuffmanNode
p306
(dp307
g2
Nsg3
(i__main__
HuffmanNode
p308
(dp309
g2
Nsg3
(i__main__
HuffmanNode
p310
(dp311
g2
Nsg3
(i__main__
HuffmanNode
p312
(dp313
g2
Nsg3
(i__main__
HuffmanNode
p314
(dp315
g2
S'U'
p316
sg3
Nsg15
Nsg16
I104
sg17
Nsbsg15
Nsg16
I206
sg17
(i__main__
HuffmanNode
p317
(dp318
g2
S'N'
p319
sg3
Nsg15
Nsg16
I102
sg17
Nsbsbsg15
Nsg16
I406
sg17
(i__main__
HuffmanNode
p320
(dp321
g2
Nsg3
(i__main__
HuffmanNode
p322
(dp323
g2
Nsg3
(i__main__
HuffmanNode
p324
(dp325
g2
S'b'
p326
sg3
Nsg15
Nsg16
I55
sg17
Nsbsg15
Nsg16
I100
sg17
(i__main__
HuffmanNode
p327
(dp328
g2
Nsg3
(i__main__
HuffmanNode
p329
(dp330
g2
S'\x89'
p331
sg3
Nsg15
Nsg16
I24
sg17
Nsbsg15
Nsg16
I45
sg17
(i__main__
HuffmanNode
p332
(dp333
g2
Nsg3
(i__main__
HuffmanNode
p334
(dp335
g2
S'c'
p336
sg3
Nsg15
Nsg16
I12
sg17
Nsbsg15
Nsg16
I21
sg17
(i__main__
HuffmanNode
p337
(dp338
g2
Nsg3
(i__main__
HuffmanNode
p339
(dp340
g2
S'C'
p341
sg3
Nsg15
Nsg16
I6
sg17
Nsbsg15
Nsg16
I9
sg17
(i__main__
HuffmanNode
p342
(dp343
g2
Nsg3
(i__main__
HuffmanNode
p344
(dp345
g2
Nsg3
(i__main__
HuffmanNode
p346
(dp347
g2
S'*'
p348
sg3
Nsg15
Nsg16
I1
sg17
Nsbsg15
Nsg16
I2
sg17
(i__main__
HuffmanNode
p349
(dp350
g2
S'\x84'
p351
sg3
Nsg15
Nsg16
I1
sg17
Nsbsbsg15
Nsg16
I3
sg17
(i__main__
HuffmanNode
p352
(dp353
g2
S'F'
p354
sg3
Nsg15
Nsg16
I1
sg17
Nsbsbsbsbsbsbsg15
Nsg16
I200
sg17
(i__main__
HuffmanNode
p355
(dp356
g2
S'\xe2'
p357
sg3
Nsg15
Nsg16
I100
sg17
Nsbsbsbsg15
Nsg16
I809
sg17
(i__main__
HuffmanNode
p358
(dp359
g2
S'M'
p360
sg3
Nsg15
Nsg16
I403
sg17
Nsbsbsg15
Nsg16
I1578
sg17
(i__main__
HuffmanNode
p361
(dp362
g2
S'E'
p363
sg3
Nsg15
Nsg16
I769
sg17
Nsbsbsbsbsg15
Nsg16
I13092
sg17
(i__main__
HuffmanNode
p364
(dp365
g2
S'y'
p366
sg3
Nsg15
Nsg16
I6368
sg17
Nsbsbsbsg15
Nsg16
I53499
sg17
(i__main__
HuffmanNode
p367
(dp368
g2
Nsg3
(i__main__
HuffmanNode
p369
(dp370
g2
S'm'
p371
sg3
Nsg15
Nsg16
I12757
sg17
Nsbsg15
Nsg16
I24378
sg17
(i__main__
HuffmanNode
p372
(dp373
g2
Nsg3
(i__main__
HuffmanNode
p374
(dp375
g2
S'h'
p376
sg3
Nsg15
Nsg16
I6095
sg17
Nsbsg15
Nsg16
I11621
sg17
(i__main__
HuffmanNode
p377
(dp378
g2
S'1'
p379
sg3
Nsg15
Nsg16
I5526
sg17
Nsbsbsbsbsbsg15
Nsg16
I221671
sg17
(i__main__
HuffmanNode
p380
(dp381
g2
Nsg3
(i__main__
HuffmanNode
p382
(dp383
g2
S' '
p384
sg3
Nsg15
Nsg16
I52181
sg17
Nsbsg15
Nsg16
I102365
sg17
(i__main__
HuffmanNode
p385
(dp386
g2
S'a'
p387
sg3
Nsg15
Nsg16
I50184
sg17
Nsbsbsbsb.